; Function Attrs: mustprogress nofree norecurse nosync nounwind willreturn memory(argmem: write) uwtable
define void @_ZN5ZXing5Aztec6WriterC2Ev(ptr nocapture noundef nonnull writeonly align 4 dereferenceable(16) %0) unnamed_addr #0 align 2 {
  store i8 2, ptr %0, align 4
  %2 = getelementptr inbounds i8, ptr %0, i64 4
  store i32 33, ptr %2, align 4
  %3 = getelementptr inbounds i8, ptr %0, i64 8
  store i32 0, ptr %3, align 4
  %4 = getelementptr inbounds i8, ptr %0, i64 12
  store i32 0, ptr %4, align 4
  ret void
}